; Function Attrs: mustprogress uwtable
define void @_ZN6icu_7522TransliteratorIDParser5SpecsC2ERKNS_13UnicodeStringES4_S4_aS4_(ptr noundef nonnull align 8 dereferenceable(265) %this, ptr noundef nonnull align 8 dereferenceable(64) %s, ptr noundef nonnull align 8 dereferenceable(64) %t, ptr noundef nonnull align 8 dereferenceable(64) %v, i8 noundef signext %sawS, ptr noundef nonnull align 8 dereferenceable(64) %f) unnamed_addr #1 align 2 personality ptr @__gxx_personality_v0 {
invoke.cont5:
  %source = getelementptr inbounds i8, ptr %this, i64 8
  store ptr getelementptr inbounds ({ [13 x ptr] }, ptr @_ZTVN6icu_7513UnicodeStringE, i64 0, i32 0, i64 2), ptr %source, align 8
  %fUnion2.i = getelementptr inbounds i8, ptr %this, i64 16
  store i16 2, ptr %fUnion2.i, align 8
  %target = getelementptr inbounds i8, ptr %this, i64 72
  store ptr getelementptr inbounds ({ [13 x ptr] }, ptr @_ZTVN6icu_7513UnicodeStringE, i64 0, i32 0, i64 2), ptr %target, align 8
  %fUnion2.i4 = getelementptr inbounds i8, ptr %this, i64 80
  store i16 2, ptr %fUnion2.i4, align 8
  %variant = getelementptr inbounds i8, ptr %this, i64 136
  store ptr getelementptr inbounds ({ [13 x ptr] }, ptr @_ZTVN6icu_7513UnicodeStringE, i64 0, i32 0, i64 2), ptr %variant, align 8
  %fUnion2.i5 = getelementptr inbounds i8, ptr %this, i64 144
  store i16 2, ptr %fUnion2.i5, align 8
  %filter = getelementptr inbounds i8, ptr %this, i64 200
  store ptr getelementptr inbounds ({ [13 x ptr] }, ptr @_ZTVN6icu_7513UnicodeStringE, i64 0, i32 0, i64 2), ptr %filter, align 8
  %fUnion2.i6 = getelementptr inbounds i8, ptr %this, i64 208
  store i16 2, ptr %fUnion2.i6, align 8
  %call = invoke noundef nonnull align 8 dereferenceable(64) ptr @_ZN6icu_7513UnicodeStringaSERKS0_(ptr noundef nonnull align 8 dereferenceable(64) %source, ptr noundef nonnull align 8 dereferenceable(64) %s)
          to label %invoke.cont8 unwind label %lpad7

invoke.cont8:                                     ; preds = %invoke.cont5
  %call11 = invoke noundef nonnull align 8 dereferenceable(64) ptr @_ZN6icu_7513UnicodeStringaSERKS0_(ptr noundef nonnull align 8 dereferenceable(64) %target, ptr noundef nonnull align 8 dereferenceable(64) %t)
          to label %invoke.cont10 unwind label %lpad7

invoke.cont10:                                    ; preds = %invoke.cont8
  %call14 = invoke noundef nonnull align 8 dereferenceable(64) ptr @_ZN6icu_7513UnicodeStringaSERKS0_(ptr noundef nonnull align 8 dereferenceable(64) %variant, ptr noundef nonnull align 8 dereferenceable(64) %v)
          to label %invoke.cont13 unwind label %lpad7

invoke.cont13:                                    ; preds = %invoke.cont10
  %sawSource = getelementptr inbounds i8, ptr %this, i64 264
  store i8 %sawS, ptr %sawSource, align 8
  %call17 = invoke noundef nonnull align 8 dereferenceable(64) ptr @_ZN6icu_7513UnicodeStringaSERKS0_(ptr noundef nonnull align 8 dereferenceable(64) %filter, ptr noundef nonnull align 8 dereferenceable(64) %f)
          to label %invoke.cont16 unwind label %lpad7

invoke.cont16:                                    ; preds = %invoke.cont13
  ret void

lpad7:                                            ; preds = %invoke.cont13, %invoke.cont10, %invoke.cont8, %invoke.cont5
  %0 = landingpad { ptr, i32 }
          cleanup
  tail call void @_ZN6icu_7513UnicodeStringD1Ev(ptr noundef nonnull align 8 dereferenceable(64) %filter) #9
  tail call void @_ZN6icu_7513UnicodeStringD1Ev(ptr noundef nonnull align 8 dereferenceable(64) %variant) #9
  tail call void @_ZN6icu_7513UnicodeStringD1Ev(ptr noundef nonnull align 8 dereferenceable(64) %target) #9
  tail call void @_ZN6icu_7513UnicodeStringD1Ev(ptr noundef nonnull align 8 dereferenceable(64) %source) #9
  resume { ptr, i32 } %0
}